target datalayout = "e-m:e-p270:32:32-p271:32:32-p272:64:64-i64:64-i128:128-f80:128-n8:16:32:64-S128"
target triple = "x86_64-pc-linux-gnu"

%struct.H5FD_onion_history_t = type { i8, i64, ptr, i32 }

@H5FD_init_g = external global i8, align 1
@H5_libterm_g = external global i8, align 1
@.str = private unnamed_addr constant [111 x i8] c"generated/home/dtcxzyw/WorkSpace/Projects/compilers/llvm-opt-benchmark/bench/hdf5/hdf5/src/H5FDonion_history.c\00", align 1
@H5E_BADVALUE_g = external global i64, align 8
@H5E_VFL_g = external global i64, align 8
@H5E_CANTALLOC_g = external global i64, align 8
@H5E_CANTSET_g = external global i64, align 8
@__func__.H5FD__onion_write_history = private unnamed_addr constant [26 x i8] c"H5FD__onion_write_history\00", align 1
@.str.9 = private unnamed_addr constant [42 x i8] c"can't allocate buffer for updated history\00", align 1
@.str.10 = private unnamed_addr constant [33 x i8] c"problem encoding updated history\00", align 1
@.str.11 = private unnamed_addr constant [37 x i8] c"can't modify EOA for updated history\00", align 1
@H5E_WRITEERROR_g = external global i64, align 8
@.str.12 = private unnamed_addr constant [32 x i8] c"can't write history as intended\00", align 1

; Function Attrs: nounwind uwtable
define i64 @H5FD__onion_write_history(ptr noundef %0, ptr noundef %1, i64 noundef %2, i64 noundef %3) #0 {
  %5 = alloca ptr, align 8
  %6 = alloca ptr, align 8
  %7 = alloca i64, align 8
  %8 = alloca i64, align 8
  %9 = alloca i32, align 4
  %10 = alloca i64, align 8
  %11 = alloca ptr, align 8
  %12 = alloca i64, align 8
  %13 = alloca i8, align 1
  store ptr %0, ptr %5, align 8, !tbaa !3
  store ptr %1, ptr %6, align 8, !tbaa !8
  store i64 %2, ptr %7, align 8, !tbaa !10
  store i64 %3, ptr %8, align 8, !tbaa !10
  call void @llvm.lifetime.start.p0(i64 4, ptr %9) #9
  store i32 0, ptr %9, align 4, !tbaa !14
  call void @llvm.lifetime.start.p0(i64 8, ptr %10) #9
  store i64 0, ptr %10, align 8, !tbaa !10
  call void @llvm.lifetime.start.p0(i64 8, ptr %11) #9
  store ptr null, ptr %11, align 8, !tbaa !12
  call void @llvm.lifetime.start.p0(i64 8, ptr %12) #9
  store i64 0, ptr %12, align 8, !tbaa !10
  call void @llvm.lifetime.start.p0(i64 1, ptr %13) #9
  store i8 0, ptr %13, align 1, !tbaa !16
  %14 = load i8, ptr @H5FD_init_g, align 1, !tbaa !16, !range !18, !noundef !19
  %15 = trunc i8 %14 to i1
  br i1 %15, label %20, label %16

16:                                               ; preds = %4
  %17 = load i8, ptr @H5_libterm_g, align 1, !tbaa !16, !range !18, !noundef !19
  %18 = trunc i8 %17 to i1
  %19 = xor i1 %18, true
  br label %20

20:                                               ; preds = %16, %4
  %21 = phi i1 [ true, %4 ], [ %19, %16 ]
  %22 = xor i1 %21, true
  %23 = xor i1 %22, true
  %24 = zext i1 %23 to i32
  %25 = sext i32 %24 to i64
  %26 = call i64 @llvm.expect.i64(i64 %25, i64 1)
  %27 = icmp ne i64 %26, 0
  br i1 %27, label %28, label %142

28:                                               ; preds = %20
  %29 = load ptr, ptr %5, align 8, !tbaa !3
  %30 = getelementptr inbounds nuw %struct.H5FD_onion_history_t, ptr %29, i32 0, i32 1
  %31 = load i64, ptr %30, align 8, !tbaa !24
  %32 = mul i64 20, %31
  %33 = add i64 20, %32
  %34 = call noalias ptr @malloc(i64 noundef %33) #10
  store ptr %34, ptr %11, align 8, !tbaa !12
  %35 = icmp eq ptr null, %34
  br i1 %35, label %36, label %55

36:                                               ; preds = %28
  br label %37

37:                                               ; preds = %36
  br label %38

38:                                               ; preds = %37
  br label %39

39:                                               ; preds = %38
  %40 = load i64, ptr @H5E_VFL_g, align 8, !tbaa !10
  %41 = load i64, ptr @H5E_CANTALLOC_g, align 8, !tbaa !10
  %42 = call i32 (ptr, ptr, i32, i64, i64, ptr, ...) @H5E_printf_stack(ptr noundef @.str, ptr noundef @__func__.H5FD__onion_write_history, i32 noundef 109, i64 noundef %40, i64 noundef %41, ptr noundef @.str.9)
  br label %43

43:                                               ; preds = %39
  br label %44

44:                                               ; preds = %43
  store i8 1, ptr %13, align 1, !tbaa !16
  %45 = load i8, ptr %13, align 1, !tbaa !16, !range !18, !noundef !19
  %46 = trunc i8 %45 to i1
  %47 = zext i1 %46 to i8
  store i8 %47, ptr %13, align 1, !tbaa !16
  br label %48

48:                                               ; preds = %44
  br label %49

49:                                               ; preds = %48
  br label %50

50:                                               ; preds = %49
  store i64 0, ptr %12, align 8, !tbaa !10
  br label %139

51:                                               ; No predecessors!
  br label %52

52:                                               ; preds = %51
  br label %53

53:                                               ; preds = %52
  br label %54

54:                                               ; preds = %53
  br label %55

55:                                               ; preds = %54, %28
  %56 = load ptr, ptr %5, align 8, !tbaa !3
  %57 = load ptr, ptr %11, align 8, !tbaa !12
  %58 = call i64 @H5FD__onion_history_encode(ptr noundef %56, ptr noundef %57, ptr noundef %9)
  store i64 %58, ptr %10, align 8, !tbaa !10
  %59 = icmp eq i64 0, %58
  br i1 %59, label %60, label %79

60:                                               ; preds = %55
  br label %61

61:                                               ; preds = %60
  br label %62

62:                                               ; preds = %61
  br label %63

63:                                               ; preds = %62
  %64 = load i64, ptr @H5E_VFL_g, align 8, !tbaa !10
  %65 = load i64, ptr @H5E_BADVALUE_g, align 8, !tbaa !10
  %66 = call i32 (ptr, ptr, i32, i64, i64, ptr, ...) @H5E_printf_stack(ptr noundef @.str, ptr noundef @__func__.H5FD__onion_write_history, i32 noundef 112, i64 noundef %64, i64 noundef %65, ptr noundef @.str.10)
  br label %67

67:                                               ; preds = %63
  br label %68

68:                                               ; preds = %67
  store i8 1, ptr %13, align 1, !tbaa !16
  %69 = load i8, ptr %13, align 1, !tbaa !16, !range !18, !noundef !19
  %70 = trunc i8 %69 to i1
  %71 = zext i1 %70 to i8
  store i8 %71, ptr %13, align 1, !tbaa !16
  br label %72

72:                                               ; preds = %68
  br label %73

73:                                               ; preds = %72
  br label %74

74:                                               ; preds = %73
  store i64 0, ptr %12, align 8, !tbaa !10
  br label %139

75:                                               ; No predecessors!
  br label %76

76:                                               ; preds = %75
  br label %77

77:                                               ; preds = %76
  br label %78

78:                                               ; preds = %77
  br label %79

79:                                               ; preds = %78, %55
  %80 = load i64, ptr %10, align 8, !tbaa !10
  %81 = load i64, ptr %7, align 8, !tbaa !10
  %82 = add i64 %80, %81
  %83 = load i64, ptr %8, align 8, !tbaa !10
  %84 = icmp ugt i64 %82, %83
  br i1 %84, label %85, label %111

85:                                               ; preds = %79
  %86 = load ptr, ptr %6, align 8, !tbaa !8
  %87 = load i64, ptr %7, align 8, !tbaa !10
  %88 = load i64, ptr %10, align 8, !tbaa !10
  %89 = add i64 %87, %88
  %90 = call i32 @H5FD_set_eoa(ptr noundef %86, i32 noundef 3, i64 noundef %89)
  %91 = icmp slt i32 %90, 0
  br i1 %91, label %92, label %111

92:                                               ; preds = %85
  br label %93

93:                                               ; preds = %92
  br label %94

94:                                               ; preds = %93
  br label %95

95:                                               ; preds = %94
  %96 = load i64, ptr @H5E_VFL_g, align 8, !tbaa !10
  %97 = load i64, ptr @H5E_CANTSET_g, align 8, !tbaa !10
  %98 = call i32 (ptr, ptr, i32, i64, i64, ptr, ...) @H5E_printf_stack(ptr noundef @.str, ptr noundef @__func__.H5FD__onion_write_history, i32 noundef 115, i64 noundef %96, i64 noundef %97, ptr noundef @.str.11)
  br label %99

99:                                               ; preds = %95
  br label %100

100:                                              ; preds = %99
  store i8 1, ptr %13, align 1, !tbaa !16
  %101 = load i8, ptr %13, align 1, !tbaa !16, !range !18, !noundef !19
  %102 = trunc i8 %101 to i1
  %103 = zext i1 %102 to i8
  store i8 %103, ptr %13, align 1, !tbaa !16
  br label %104

104:                                              ; preds = %100
  br label %105

105:                                              ; preds = %104
  br label %106

106:                                              ; preds = %105
  store i64 0, ptr %12, align 8, !tbaa !10
  br label %139

107:                                              ; No predecessors!
  br label %108

108:                                              ; preds = %107
  br label %109

109:                                              ; preds = %108
  br label %110

110:                                              ; preds = %109
  br label %111

111:                                              ; preds = %110, %85, %79
  %112 = load ptr, ptr %6, align 8, !tbaa !8
  %113 = load i64, ptr %7, align 8, !tbaa !10
  %114 = load i64, ptr %10, align 8, !tbaa !10
  %115 = load ptr, ptr %11, align 8, !tbaa !12
  %116 = call i32 @H5FD_write(ptr noundef %112, i32 noundef 3, i64 noundef %113, i64 noundef %114, ptr noundef %115)
  %117 = icmp slt i32 %116, 0
  br i1 %117, label %118, label %137

118:                                              ; preds = %111
  br label %119

119:                                              ; preds = %118
  br label %120

120:                                              ; preds = %119
  br label %121

121:                                              ; preds = %120
  %122 = load i64, ptr @H5E_VFL_g, align 8, !tbaa !10
  %123 = load i64, ptr @H5E_WRITEERROR_g, align 8, !tbaa !10
  %124 = call i32 (ptr, ptr, i32, i64, i64, ptr, ...) @H5E_printf_stack(ptr noundef @.str, ptr noundef @__func__.H5FD__onion_write_history, i32 noundef 118, i64 noundef %122, i64 noundef %123, ptr noundef @.str.12)
  br label %125

125:                                              ; preds = %121
  br label %126

126:                                              ; preds = %125
  store i8 1, ptr %13, align 1, !tbaa !16
  %127 = load i8, ptr %13, align 1, !tbaa !16, !range !18, !noundef !19
  %128 = trunc i8 %127 to i1
  %129 = zext i1 %128 to i8
  store i8 %129, ptr %13, align 1, !tbaa !16
  br label %130

130:                                              ; preds = %126
  br label %131

131:                                              ; preds = %130
  br label %132

132:                                              ; preds = %131
  store i64 0, ptr %12, align 8, !tbaa !10
  br label %139

133:                                              ; No predecessors!
  br label %134

134:                                              ; preds = %133
  br label %135

135:                                              ; preds = %134
  br label %136

136:                                              ; preds = %135
  br label %137

137:                                              ; preds = %136, %111
  %138 = load i64, ptr %10, align 8, !tbaa !10
  store i64 %138, ptr %12, align 8, !tbaa !10
  br label %139

139:                                              ; preds = %137, %132, %106, %74, %50
  %140 = load ptr, ptr %11, align 8, !tbaa !12
  %141 = call ptr @H5MM_xfree(ptr noundef %140)
  br label %142

142:                                              ; preds = %139, %20
  %143 = load i64, ptr %12, align 8, !tbaa !10
  call void @llvm.lifetime.end.p0(i64 1, ptr %13) #9
  call void @llvm.lifetime.end.p0(i64 8, ptr %12) #9
  call void @llvm.lifetime.end.p0(i64 8, ptr %11) #9
  call void @llvm.lifetime.end.p0(i64 8, ptr %10) #9
  call void @llvm.lifetime.end.p0(i64 4, ptr %9) #9
  ret i64 %143
}