; Function Attrs: nounwind uwtable
define i64 @H5FD__onion_write_history(ptr noundef readonly captures(none) %0, ptr noundef %1, i64 noundef %2, i64 noundef %3) local_unnamed_addr #0 {
  %5 = alloca i32, align 4
  call void @llvm.lifetime.start.p0(i64 4, ptr nonnull %5) #9
  store i32 0, ptr %5, align 4, !tbaa !23
  %6 = load i8, ptr @H5FD_init_g, align 1, !tbaa !3, !range !7, !noundef !8
  %7 = trunc nuw i8 %6 to i1
  %8 = load i8, ptr @H5_libterm_g, align 1, !range !7
  %9 = trunc nuw i8 %8 to i1
  %10 = xor i1 %9, true
  %11 = select i1 %7, i1 true, i1 %10
  br i1 %11, label %12, label %49, !prof !9

12:                                               ; preds = %4
  %13 = getelementptr inbounds nuw i8, ptr %0, i64 8
  %14 = load i64, ptr %13, align 8, !tbaa !18
  %15 = mul i64 %14, 20
  %16 = add i64 %15, 20
  %17 = tail call noalias ptr @malloc(i64 noundef %16) #10
  %18 = icmp eq ptr %17, null
  br i1 %18, label %19, label %23

19:                                               ; preds = %12
  %20 = load i64, ptr @H5E_VFL_g, align 8, !tbaa !16
  %21 = load i64, ptr @H5E_CANTALLOC_g, align 8, !tbaa !16
  %22 = tail call i32 (ptr, ptr, i32, i64, i64, ptr, ...) @H5E_printf_stack(ptr noundef nonnull @.str, ptr noundef nonnull @__func__.H5FD__onion_write_history, i32 noundef 109, i64 noundef %20, i64 noundef %21, ptr noundef nonnull @.str.9) #9
  br label %47

23:                                               ; preds = %12
  %24 = call i64 @H5FD__onion_history_encode(ptr noundef nonnull %0, ptr noundef nonnull %17, ptr noundef nonnull %5)
  %25 = icmp eq i64 %24, 0
  br i1 %25, label %26, label %30

26:                                               ; preds = %23
  %27 = load i64, ptr @H5E_VFL_g, align 8, !tbaa !16
  %28 = load i64, ptr @H5E_BADVALUE_g, align 8, !tbaa !16
  %29 = tail call i32 (ptr, ptr, i32, i64, i64, ptr, ...) @H5E_printf_stack(ptr noundef nonnull @.str, ptr noundef nonnull @__func__.H5FD__onion_write_history, i32 noundef 112, i64 noundef %27, i64 noundef %28, ptr noundef nonnull @.str.10) #9
  br label %47

30:                                               ; preds = %23
  %31 = add i64 %24, %2
  %32 = icmp ugt i64 %31, %3
  br i1 %32, label %33, label %40

33:                                               ; preds = %30
  %34 = tail call i32 @H5FD_set_eoa(ptr noundef %1, i32 noundef 3, i64 noundef %31) #9
  %35 = icmp slt i32 %34, 0
  br i1 %35, label %36, label %40

36:                                               ; preds = %33
  %37 = load i64, ptr @H5E_VFL_g, align 8, !tbaa !16
  %38 = load i64, ptr @H5E_CANTSET_g, align 8, !tbaa !16
  %39 = tail call i32 (ptr, ptr, i32, i64, i64, ptr, ...) @H5E_printf_stack(ptr noundef nonnull @.str, ptr noundef nonnull @__func__.H5FD__onion_write_history, i32 noundef 115, i64 noundef %37, i64 noundef %38, ptr noundef nonnull @.str.11) #9
  br label %47

40:                                               ; preds = %33, %30
  %41 = tail call i32 @H5FD_write(ptr noundef %1, i32 noundef 3, i64 noundef %2, i64 noundef %24, ptr noundef nonnull %17) #9
  %42 = icmp slt i32 %41, 0
  br i1 %42, label %43, label %47

43:                                               ; preds = %40
  %44 = load i64, ptr @H5E_VFL_g, align 8, !tbaa !16
  %45 = load i64, ptr @H5E_WRITEERROR_g, align 8, !tbaa !16
  %46 = tail call i32 (ptr, ptr, i32, i64, i64, ptr, ...) @H5E_printf_stack(ptr noundef nonnull @.str, ptr noundef nonnull @__func__.H5FD__onion_write_history, i32 noundef 118, i64 noundef %44, i64 noundef %45, ptr noundef nonnull @.str.12) #9
  br label %47

47:                                               ; preds = %40, %43, %36, %26, %19
  %.1 = phi i64 [ 0, %19 ], [ 0, %26 ], [ 0, %36 ], [ 0, %43 ], [ %24, %40 ]
  %48 = tail call ptr @H5MM_xfree(ptr noundef %17) #9
  br label %49

49:                                               ; preds = %47, %4
  %.0 = phi i64 [ %.1, %47 ], [ 0, %4 ]
  call void @llvm.lifetime.end.p0(i64 4, ptr nonnull %5) #9
  ret i64 %.0
}